target datalayout = "e-m:e-p270:32:32-p271:32:32-p272:64:64-i64:64-i128:128-f80:128-n8:16:32:64-S128"
target triple = "x86_64-pc-linux-gnu"

%struct.TS_resp_st = type { ptr, ptr, ptr }

; Function Attrs: nounwind uwtable
define void @TS_RESP_set_tst_info(ptr noundef %0, ptr noundef %1, ptr noundef %2) #0 {
  %4 = alloca ptr, align 8
  %5 = alloca ptr, align 8
  %6 = alloca ptr, align 8
  store ptr %0, ptr %4, align 8, !tbaa !3
  store ptr %1, ptr %5, align 8, !tbaa !14
  store ptr %2, ptr %6, align 8, !tbaa !15
  %7 = load ptr, ptr %4, align 8, !tbaa !3
  %8 = getelementptr inbounds nuw %struct.TS_resp_st, ptr %7, i32 0, i32 1
  %9 = load ptr, ptr %8, align 8, !tbaa !16
  call void @PKCS7_free(ptr noundef %9)
  %10 = load ptr, ptr %5, align 8, !tbaa !14
  %11 = load ptr, ptr %4, align 8, !tbaa !3
  %12 = getelementptr inbounds nuw %struct.TS_resp_st, ptr %11, i32 0, i32 1
  store ptr %10, ptr %12, align 8, !tbaa !16
  %13 = load ptr, ptr %4, align 8, !tbaa !3
  %14 = getelementptr inbounds nuw %struct.TS_resp_st, ptr %13, i32 0, i32 2
  %15 = load ptr, ptr %14, align 8, !tbaa !17
  call void @TS_TST_INFO_free(ptr noundef %15)
  %16 = load ptr, ptr %6, align 8, !tbaa !15
  %17 = load ptr, ptr %4, align 8, !tbaa !3
  %18 = getelementptr inbounds nuw %struct.TS_resp_st, ptr %17, i32 0, i32 2
  store ptr %16, ptr %18, align 8, !tbaa !17
  ret void
}