; Function Attrs: nounwind uwtable
define void @TS_RESP_set_tst_info(ptr noundef captures(none) %0, ptr noundef %1, ptr noundef %2) local_unnamed_addr #0 {
  %4 = getelementptr inbounds nuw i8, ptr %0, i64 8
  %5 = load ptr, ptr %4, align 8, !tbaa !11
  tail call void @PKCS7_free(ptr noundef %5) #4
  store ptr %1, ptr %4, align 8, !tbaa !11
  %6 = getelementptr inbounds nuw i8, ptr %0, i64 16
  %7 = load ptr, ptr %6, align 8, !tbaa !12
  tail call void @TS_TST_INFO_free(ptr noundef %7) #4
  store ptr %2, ptr %6, align 8, !tbaa !12
  ret void
}